Certificate Request:
    Data:
        Version: 0 (0x0)
        Subject: OU=Domain Control Validated, OU=EssentialSSL Wildcard, CN=*.idntimes.com
        Subject Public Key Info:
            Public Key Algorithm: rsaEncryption
                Public-Key: (2048 bit)
                Modulus:
                    00:9c:79:cb:14:92:f9:f3:c2:72:fb:c7:1c:4d:b9:
                    d2:8f:7c:3c:6a:6c:3c:ff:ef:a1:6f:fe:82:2b:b4:
                    e9:ab:36:27:3a:24:63:cb:3d:eb:cb:39:37:15:5e:
                    c3:34:9f:47:a4:2c:c8:3e:a9:7b:77:70:45:03:7b:
                    4f:4c:93:30:83:b1:eb:e0:7f:cc:56:1c:dd:47:30:
                    f8:3f:11:4e:4a:1d:8d:c2:6f:65:ae:e4:d0:7e:8d:
                    5e:50:96:e5:38:82:4f:e3:59:a0:cd:a6:8c:88:52:
                    58:71:65:9f:aa:48:a8:9d:3e:22:0a:57:df:e3:7c:
                    36:71:a3:c9:06:1b:31:ba:94:08:bc:b7:0a:d6:bc:
                    02:ba:cd:f9:72:66:a2:b7:3a:bc:ed:2d:13:71:63:
                    2b:e5:8b:04:48:5a:c8:f1:59:7d:61:fd:34:df:50:
                    10:d4:e8:d0:19:0f:87:1d:78:68:c1:53:68:7c:bb:
                    5e:6b:94:42:08:04:d0:c3:aa:92:12:e0:6e:4b:91:
                    ed:52:5c:df:86:4c:78:81:2d:57:37:33:53:be:24:
                    0c:e9:bd:e8:10:28:36:99:d8:08:e3:7a:49:be:f6:
                    18:cd:13:bd:9d:12:17:13:c3:dc:1a:13:78:9b:3e:
                    f5:d7:b7:96:10:e9:00:70:7f:0c:29:4d:f7:e8:ed:
                    86:8b
                Exponent: 65537 (0x10001)
        Attributes:
            a0:00
    Signature Algorithm: sha256WithRSAEncryption
         24:78:58:26:e3:1b:ef:79:90:bc:4d:65:67:62:2a:2d:03:e3:
         ac:16:2e:77:8f:34:b5:0f:dd:0a:1c:78:c1:a2:6f:e9:59:51:
         03:27:06:45:8b:33:c9:21:dd:d7:bb:ad:a8:3d:86:4a:07:95:
         e2:eb:c1:1a:a3:07:ed:7a:36:c2:5a:1e:07:19:36:d9:25:36:
         ff:3c:ac:07:d2:56:b1:af:5d:3a:2d:5e:61:13:f1:a2:46:69:
         3f:ae:15:3f:e8:76:fc:76:0a:7a:f8:af:7e:ea:2d:cd:d3:a1:
         df:12:03:f5:90:73:1f:0c:ac:bf:47:b9:d0:88:8b:73:93:94:
         f1:05:9b:ef:a3:09:a4:49:b1:82:1a:9a:80:28:54:87:1e:83:
         95:1a:65:d2:1e:5a:40:21:c5:93:5e:5e:1a:4e:4f:10:50:5c:
         91:28:b2:77:14:62:69:07:fe:ec:fe:f9:fa:80:1c:61:2f:c3:
         63:57:0e:4f:3f:56:97:31:46:33:fb:ae:72:9d:4d:7d:54:6d:
         bf:a7:4b:4b:90:04:69:93:67:e3:70:d5:bd:34:94:82:e0:91:
         82:bb:41:7c:fd:5a:5b:1e:3b:29:88:6a:3b:c8:47:b7:76:1f:
         6f:dd:a5:d7:6a:90:78:ca:bc:bc:c7:48:54:49:b5:7d:43:de:
         6d:5a:56:3d
-----BEGIN CERTIFICATE REQUEST-----
MIICoTCCAYkCAQAwXDEhMB8GA1UECxMYRG9tYWluIENvbnRyb2wgVmFsaWRhdGVk
MR4wHAYDVQQLExVFc3NlbnRpYWxTU0wgV2lsZGNhcmQxFzAVBgNVBAMMDiouaWRu
dGltZXMuY29tMIIBIjANBgkqhkiG9w0BAQEFAAOCAQ8AMIIBCgKCAQEAnHnLFJL5
88Jy+8ccTbnSj3w8amw8/++hb/6CK7TpqzYnOiRjyz3ryzk3FV7DNJ9HpCzIPql7
d3BFA3tPTJMwg7Hr4H/MVhzdRzD4PxFOSh2Nwm9lruTQfo1eUJblOIJP41mgzaaM
iFJYcWWfqkionT4iClff43w2caPJBhsxupQIvLcK1rwCus35cmaitzq87S0TcWMr
5YsESFrI8Vl9Yf0031AQ1OjQGQ+HHXhowVNofLtea5RCCATQw6qSEuBuS5HtUlzf
hkx4gS1XNzNTviQM6b3oECg2mdgI43pJvvYYzRO9nRIXE8PcGhN4mz7117eWEOkA
cH8MKU336O2GiwIDAQABoAAwDQYJKoZIhvcNAQELBQADggEBACR4WCbjG+95kLxN
ZWdiKi0D46wWLnePNLUP3QoceMGib+lZUQMnBkWLM8kh3de7rag9hkoHleLrwRqj
B+16NsJaHgcZNtklNv88rAfSVrGvXTotXmET8aJGaT+uFT/odvx2Cnr4r37qLc3T
od8SA/WQcx8MrL9HudCIi3OTlPEFm++jCaRJsYIamoAoVIceg5UaZdIeWkAhxZNe
XhpOTxBQXJEosncUYmkH/uz++fqAHGEvw2NXDk8/VpcxRjP7rnKdTX1Ubb+nS0uQ
BGmTZ+Nw1b00lILgkYK7QXz9WlseOymIajvIR7d2H2/dpddqkHjKvLzHSFRJtX1D
3m1aVj0=
-----END CERTIFICATE REQUEST-----
